; Function Attrs: uwtable
define hidden noundef zeroext i1 @_ZTv0_n32_NK5osgeo4proj3crs10DerivedCRS15_isEquivalentToEPKNS0_4util11IComparableENS4_9CriterionERKSt10shared_ptrINS0_2io15DatabaseContextEE(ptr noundef %0, ptr noundef %1, i32 noundef %2, ptr noundef nonnull align 8 dereferenceable(16) %3) unnamed_addr #7 align 2 {
  %5 = load ptr, ptr %0, align 8
  %6 = getelementptr inbounds i8, ptr %5, i64 -32
  %7 = load i64, ptr %6, align 8
  %8 = getelementptr inbounds i8, ptr %0, i64 %7
  %9 = icmp eq ptr %1, null
  br i1 %9, label %_ZNK5osgeo4proj3crs10DerivedCRS15_isEquivalentToEPKNS0_4util11IComparableENS4_9CriterionERKSt10shared_ptrINS0_2io15DatabaseContextEE.exit, label %10

10:                                               ; preds = %4
  %11 = tail call ptr @__dynamic_cast(ptr nonnull %1, ptr nonnull @_ZTIN5osgeo4proj4util11IComparableE, ptr nonnull @_ZTIN5osgeo4proj3crs10DerivedCRSE, i64 -1) #37
  %12 = icmp eq i32 %2, 2
  %13 = select i1 %12, i32 1, i32 %2
  %14 = icmp eq ptr %11, null
  br i1 %14, label %_ZNK5osgeo4proj3crs10DerivedCRS15_isEquivalentToEPKNS0_4util11IComparableENS4_9CriterionERKSt10shared_ptrINS0_2io15DatabaseContextEE.exit, label %15

15:                                               ; preds = %10
  %16 = load ptr, ptr %8, align 8
  %17 = getelementptr i8, ptr %16, i64 -24
  %18 = load i64, ptr %17, align 8
  %19 = getelementptr inbounds i8, ptr %8, i64 %18
  %20 = tail call noundef zeroext i1 @_ZNK5osgeo4proj3crs9SingleCRS18baseIsEquivalentToEPKNS0_4util11IComparableENS4_9CriterionERKSt10shared_ptrINS0_2io15DatabaseContextEE(ptr noundef nonnull align 8 dereferenceable(72) %19, ptr noundef nonnull %1, i32 noundef %13, ptr noundef nonnull align 8 dereferenceable(16) %3)
  br i1 %20, label %21, label %_ZNK5osgeo4proj3crs10DerivedCRS15_isEquivalentToEPKNS0_4util11IComparableENS4_9CriterionERKSt10shared_ptrINS0_2io15DatabaseContextEE.exit

21:                                               ; preds = %15
  %22 = getelementptr inbounds i8, ptr %8, i64 8
  %23 = load ptr, ptr %22, align 8
  %24 = load ptr, ptr %23, align 8
  %25 = getelementptr inbounds i8, ptr %11, i64 8
  %26 = load ptr, ptr %25, align 8
  %27 = load ptr, ptr %26, align 8
  %28 = icmp eq ptr %27, null
  %29 = getelementptr inbounds i8, ptr %27, i64 16
  %spec.select.i = select i1 %28, ptr null, ptr %29
  %30 = load ptr, ptr %24, align 8
  %31 = getelementptr inbounds i8, ptr %30, i64 16
  %32 = load ptr, ptr %31, align 8
  %33 = tail call noundef zeroext i1 %32(ptr noundef nonnull align 8 dereferenceable(48) %24, ptr noundef %spec.select.i, i32 noundef %2, ptr noundef nonnull align 8 dereferenceable(16) %3)
  br i1 %33, label %34, label %_ZNK5osgeo4proj3crs10DerivedCRS15_isEquivalentToEPKNS0_4util11IComparableENS4_9CriterionERKSt10shared_ptrINS0_2io15DatabaseContextEE.exit

34:                                               ; preds = %21
  %35 = load ptr, ptr %22, align 8
  %36 = getelementptr inbounds i8, ptr %35, i64 16
  %37 = load ptr, ptr %36, align 8
  %38 = load ptr, ptr %25, align 8
  %39 = getelementptr inbounds i8, ptr %38, i64 16
  %40 = load ptr, ptr %39, align 8
  %41 = icmp eq ptr %40, null
  br i1 %41, label %48, label %42

42:                                               ; preds = %34
  %43 = load ptr, ptr %40, align 8
  %44 = getelementptr i8, ptr %43, i64 -24
  %45 = load i64, ptr %44, align 8
  %46 = getelementptr i8, ptr %40, i64 %45
  %47 = getelementptr i8, ptr %46, i64 16
  br label %48

48:                                               ; preds = %42, %34
  %49 = phi ptr [ %47, %42 ], [ null, %34 ]
  %50 = load ptr, ptr %37, align 8
  %51 = getelementptr inbounds i8, ptr %50, i64 24
  %52 = load ptr, ptr %51, align 8
  %53 = tail call noundef zeroext i1 %52(ptr noundef nonnull align 8 dereferenceable(16) %37, ptr noundef %49, i32 noundef %13, ptr noundef nonnull align 8 dereferenceable(16) %3)
  br label %_ZNK5osgeo4proj3crs10DerivedCRS15_isEquivalentToEPKNS0_4util11IComparableENS4_9CriterionERKSt10shared_ptrINS0_2io15DatabaseContextEE.exit

_ZNK5osgeo4proj3crs10DerivedCRS15_isEquivalentToEPKNS0_4util11IComparableENS4_9CriterionERKSt10shared_ptrINS0_2io15DatabaseContextEE.exit: ; preds = %4, %10, %15, %21, %48
  %.0.i = phi i1 [ false, %15 ], [ false, %10 ], [ false, %21 ], [ %53, %48 ], [ false, %4 ]
  ret i1 %.0.i
}